; Function Attrs: mustprogress uwtable
define hidden noundef ptr @_ZNK10params_ref7get_strEPKcS1_(ptr nocapture noundef nonnull readonly align 8 dereferenceable(8) %this, ptr noundef %k, ptr noundef %_default) local_unnamed_addr #3 align 2 {
entry:
  %0 = load ptr, ptr %this, align 8
  %tobool.not = icmp eq ptr %0, null
  br i1 %tobool.not, label %cond.end, label %cond.true

cond.true:                                        ; preds = %entry
  %call = tail call noundef ptr @_ZNK6params7get_strEPKcS1_(ptr noundef nonnull align 8 dereferenceable(12) %0, ptr noundef %k, ptr noundef %_default)
  br label %cond.end

cond.end:                                         ; preds = %entry, %cond.true
  %cond = phi ptr [ %call, %cond.true ], [ %_default, %entry ]
  ret ptr %cond
}